target datalayout = "e-m:e-p270:32:32-p271:32:32-p272:64:64-i64:64-i128:128-f80:128-n8:16:32:64-S128"
target triple = "x86_64-pc-linux-gnu"

%struct.FT_FaceRec_ = type { i64, i64, i64, i64, i64, ptr, ptr, i32, ptr, i32, ptr, %struct.FT_Generic_, %struct.FT_BBox_, i16, i16, i16, i16, i16, i16, i16, i16, ptr, ptr, ptr, ptr, ptr, ptr, %struct.FT_ListRec_, %struct.FT_Generic_, ptr, ptr }
%struct.FT_BBox_ = type { i64, i64, i64, i64 }
%struct.FT_ListRec_ = type { ptr, ptr }
%struct.FT_Generic_ = type { ptr, ptr }
%struct.TT_FaceRec_ = type { %struct.FT_FaceRec_, %struct.TTC_HeaderRec_, i64, i16, ptr, %struct.TT_Header_, %struct.TT_HoriHeader_, %struct.TT_MaxProfile_, i8, %struct.TT_VertHeader_, i16, %struct.TT_NameTableRec_, %struct.TT_OS2_, %struct.TT_Postscript_, ptr, i64, ptr, ptr, ptr, ptr, ptr, ptr, ptr, ptr, ptr, ptr, ptr, ptr, %struct.TT_Gasp_, %struct.TT_PCLT_, i64, ptr, %struct.TT_Post_NamesRec_, %struct.FT_Palette_Data_, i16, ptr, i8, %struct.FT_Color_, i64, ptr, i64, ptr, i64, ptr, ptr, %struct.FT_Generic_, ptr, i64, i64, i8, i8, ptr, i32, ptr, i32, i32, ptr, i64, i64, i64, ptr, ptr, i64, i32, i64, ptr, ptr, i64, i32, i32, ptr, ptr, i64, i32, i32, i32, %struct.TT_BDFRec_, i64, i64, i64, i64, ptr, ptr, ptr }
%struct.TTC_HeaderRec_ = type { i64, i64, i64, ptr }
%struct.TT_Header_ = type { i64, i64, i64, i64, i16, i16, [2 x i64], [2 x i64], i16, i16, i16, i16, i16, i16, i16, i16, i16 }
%struct.TT_HoriHeader_ = type { i64, i16, i16, i16, i16, i16, i16, i16, i16, i16, i16, [4 x i16], i16, i16, ptr, ptr }
%struct.TT_MaxProfile_ = type { i64, i16, i16, i16, i16, i16, i16, i16, i16, i16, i16, i16, i16, i16, i16 }
%struct.TT_VertHeader_ = type { i64, i16, i16, i16, i16, i16, i16, i16, i16, i16, i16, [4 x i16], i16, i16, ptr, ptr }
%struct.TT_NameTableRec_ = type { i16, i32, i32, ptr, i32, ptr, ptr }
%struct.TT_OS2_ = type { i16, i16, i16, i16, i16, i16, i16, i16, i16, i16, i16, i16, i16, i16, i16, i16, [10 x i8], i64, i64, i64, i64, [4 x i8], i16, i16, i16, i16, i16, i16, i16, i16, i64, i64, i16, i16, i16, i16, i16, i16, i16 }
%struct.TT_Postscript_ = type { i64, i64, i16, i16, i64, i64, i64, i64, i64 }
%struct.TT_Gasp_ = type { i16, i16, ptr }
%struct.TT_PCLT_ = type { i64, i64, i16, i16, i16, i16, i16, i16, [16 x i8], [8 x i8], [6 x i8], i8, i8, i8, i8 }
%struct.TT_Post_NamesRec_ = type { i8, i16, i16, ptr, ptr }
%struct.FT_Palette_Data_ = type { i16, ptr, ptr, i16, ptr }
%struct.FT_Color_ = type { i8, i8, i8, i8 }
%struct.TT_BDFRec_ = type { ptr, ptr, ptr, i64, i32, i8 }

; Function Attrs: nounwind uwtable
define internal i32 @tt_face_get_kerning(ptr noundef %0, i32 noundef %1, i32 noundef %2) #0 {
  %4 = alloca i32, align 4
  %5 = alloca ptr, align 8
  %6 = alloca i32, align 4
  %7 = alloca i32, align 4
  %8 = alloca i32, align 4
  %9 = alloca i32, align 4
  %10 = alloca i32, align 4
  %11 = alloca ptr, align 8
  %12 = alloca ptr, align 8
  %13 = alloca ptr, align 8
  %14 = alloca ptr, align 8
  %15 = alloca i32, align 4
  %16 = alloca i32, align 4
  %17 = alloca i32, align 4
  %18 = alloca i32, align 4
  %19 = alloca i32, align 4
  %20 = alloca i64, align 8
  %21 = alloca i32, align 4
  %22 = alloca i32, align 4
  %23 = alloca i32, align 4
  %24 = alloca ptr, align 8
  %25 = alloca i64, align 8
  %26 = alloca i32, align 4
  %27 = alloca i64, align 8
  store ptr %0, ptr %5, align 8
  store i32 %1, ptr %6, align 4
  store i32 %2, ptr %7, align 4
  store i32 0, ptr %8, align 4
  %28 = load ptr, ptr %5, align 8
  %29 = getelementptr inbounds %struct.TT_FaceRec_, ptr %28, i32 0, i32 71
  %30 = load ptr, ptr %29, align 8
  %31 = icmp ne ptr %30, null
  br i1 %31, label %34, label %32

32:                                               ; preds = %3
  %33 = load i32, ptr %8, align 4
  store i32 %33, ptr %4, align 4
  br label %353

34:                                               ; preds = %3
  %35 = load ptr, ptr %5, align 8
  %36 = getelementptr inbounds %struct.TT_FaceRec_, ptr %35, i32 0, i32 71
  %37 = load ptr, ptr %36, align 8
  store ptr %37, ptr %11, align 8
  %38 = load ptr, ptr %11, align 8
  %39 = load ptr, ptr %5, align 8
  %40 = getelementptr inbounds %struct.TT_FaceRec_, ptr %39, i32 0, i32 72
  %41 = load i64, ptr %40, align 8
  %42 = getelementptr inbounds i8, ptr %38, i64 %41
  store ptr %42, ptr %12, align 8
  %43 = load ptr, ptr %11, align 8
  %44 = getelementptr inbounds i8, ptr %43, i64 4
  store ptr %44, ptr %11, align 8
  store i32 1, ptr %10, align 4
  %45 = load ptr, ptr %5, align 8
  %46 = getelementptr inbounds %struct.TT_FaceRec_, ptr %45, i32 0, i32 73
  %47 = load i32, ptr %46, align 8
  store i32 %47, ptr %9, align 4
  br label %48

48:                                               ; preds = %346, %34
  %49 = load i32, ptr %9, align 4
  %50 = icmp ugt i32 %49, 0
  br i1 %50, label %51, label %56

51:                                               ; preds = %48
  %52 = load ptr, ptr %11, align 8
  %53 = getelementptr inbounds i8, ptr %52, i64 6
  %54 = load ptr, ptr %12, align 8
  %55 = icmp ule ptr %53, %54
  br label %56

56:                                               ; preds = %51, %48
  %57 = phi i1 [ false, %48 ], [ %55, %51 ]
  br i1 %57, label %58, label %351

58:                                               ; preds = %56
  %59 = load ptr, ptr %11, align 8
  store ptr %59, ptr %13, align 8
  %60 = load ptr, ptr %11, align 8
  %61 = getelementptr inbounds i8, ptr %60, i64 2
  store ptr %61, ptr %11, align 8
  %62 = load ptr, ptr %11, align 8
  %63 = getelementptr inbounds i8, ptr %62, i64 -2
  %64 = getelementptr inbounds i8, ptr %63, i64 0
  %65 = load i8, ptr %64, align 1
  %66 = zext i8 %65 to i16
  %67 = zext i16 %66 to i32
  %68 = shl i32 %67, 8
  %69 = load ptr, ptr %11, align 8
  %70 = getelementptr inbounds i8, ptr %69, i64 -2
  %71 = getelementptr inbounds i8, ptr %70, i64 1
  %72 = load i8, ptr %71, align 1
  %73 = zext i8 %72 to i16
  %74 = zext i16 %73 to i32
  %75 = shl i32 %74, 0
  %76 = or i32 %68, %75
  %77 = trunc i32 %76 to i16
  %78 = zext i16 %77 to i32
  store i32 %78, ptr %15, align 4
  %79 = load ptr, ptr %11, align 8
  %80 = getelementptr inbounds i8, ptr %79, i64 2
  store ptr %80, ptr %11, align 8
  %81 = load ptr, ptr %11, align 8
  %82 = getelementptr inbounds i8, ptr %81, i64 -2
  %83 = getelementptr inbounds i8, ptr %82, i64 0
  %84 = load i8, ptr %83, align 1
  %85 = zext i8 %84 to i16
  %86 = zext i16 %85 to i32
  %87 = shl i32 %86, 8
  %88 = load ptr, ptr %11, align 8
  %89 = getelementptr inbounds i8, ptr %88, i64 -2
  %90 = getelementptr inbounds i8, ptr %89, i64 1
  %91 = load i8, ptr %90, align 1
  %92 = zext i8 %91 to i16
  %93 = zext i16 %92 to i32
  %94 = shl i32 %93, 0
  %95 = or i32 %87, %94
  %96 = trunc i32 %95 to i16
  %97 = zext i16 %96 to i32
  store i32 %97, ptr %16, align 4
  %98 = load ptr, ptr %11, align 8
  %99 = getelementptr inbounds i8, ptr %98, i64 2
  store ptr %99, ptr %11, align 8
  %100 = load ptr, ptr %11, align 8
  %101 = getelementptr inbounds i8, ptr %100, i64 -2
  %102 = getelementptr inbounds i8, ptr %101, i64 0
  %103 = load i8, ptr %102, align 1
  %104 = zext i8 %103 to i16
  %105 = zext i16 %104 to i32
  %106 = shl i32 %105, 8
  %107 = load ptr, ptr %11, align 8
  %108 = getelementptr inbounds i8, ptr %107, i64 -2
  %109 = getelementptr inbounds i8, ptr %108, i64 1
  %110 = load i8, ptr %109, align 1
  %111 = zext i8 %110 to i16
  %112 = zext i16 %111 to i32
  %113 = shl i32 %112, 0
  %114 = or i32 %106, %113
  %115 = trunc i32 %114 to i16
  %116 = zext i16 %115 to i32
  store i32 %116, ptr %17, align 4
  store i32 0, ptr %19, align 4
  %117 = load i32, ptr %15, align 4
  store i32 %117, ptr %15, align 4
  %118 = load ptr, ptr %13, align 8
  %119 = load i32, ptr %16, align 4
  %120 = zext i32 %119 to i64
  %121 = getelementptr inbounds i8, ptr %118, i64 %120
  store ptr %121, ptr %14, align 8
  %122 = load ptr, ptr %14, align 8
  %123 = load ptr, ptr %12, align 8
  %124 = icmp ugt ptr %122, %123
  br i1 %124, label %125, label %127

125:                                              ; preds = %58
  %126 = load ptr, ptr %12, align 8
  store ptr %126, ptr %14, align 8
  br label %127

127:                                              ; preds = %125, %58
  %128 = load ptr, ptr %5, align 8
  %129 = getelementptr inbounds %struct.TT_FaceRec_, ptr %128, i32 0, i32 74
  %130 = load i32, ptr %129, align 4
  %131 = load i32, ptr %10, align 4
  %132 = and i32 %130, %131
  %133 = icmp eq i32 %132, 0
  br i1 %133, label %134, label %135

134:                                              ; preds = %127
  br label %344

135:                                              ; preds = %127
  br label %136

136:                                              ; preds = %135
  br label %137

137:                                              ; preds = %136
  %138 = load ptr, ptr %11, align 8
  %139 = getelementptr inbounds i8, ptr %138, i64 2
  store ptr %139, ptr %11, align 8
  %140 = load ptr, ptr %11, align 8
  %141 = getelementptr inbounds i8, ptr %140, i64 -2
  %142 = getelementptr inbounds i8, ptr %141, i64 0
  %143 = load i8, ptr %142, align 1
  %144 = zext i8 %143 to i16
  %145 = zext i16 %144 to i32
  %146 = shl i32 %145, 8
  %147 = load ptr, ptr %11, align 8
  %148 = getelementptr inbounds i8, ptr %147, i64 -2
  %149 = getelementptr inbounds i8, ptr %148, i64 1
  %150 = load i8, ptr %149, align 1
  %151 = zext i8 %150 to i16
  %152 = zext i16 %151 to i32
  %153 = shl i32 %152, 0
  %154 = or i32 %146, %153
  %155 = trunc i32 %154 to i16
  %156 = zext i16 %155 to i32
  store i32 %156, ptr %18, align 4
  %157 = load ptr, ptr %11, align 8
  %158 = getelementptr inbounds i8, ptr %157, i64 6
  store ptr %158, ptr %11, align 8
  %159 = load ptr, ptr %14, align 8
  %160 = load ptr, ptr %11, align 8
  %161 = ptrtoint ptr %159 to i64
  %162 = ptrtoint ptr %160 to i64
  %163 = sub i64 %161, %162
  %164 = load i32, ptr %18, align 4
  %165 = mul nsw i32 6, %164
  %166 = sext i32 %165 to i64
  %167 = icmp slt i64 %163, %166
  br i1 %167, label %168, label %176

168:                                              ; preds = %137
  %169 = load ptr, ptr %14, align 8
  %170 = load ptr, ptr %11, align 8
  %171 = ptrtoint ptr %169 to i64
  %172 = ptrtoint ptr %170 to i64
  %173 = sub i64 %171, %172
  %174 = sdiv i64 %173, 6
  %175 = trunc i64 %174 to i32
  store i32 %175, ptr %18, align 4
  br label %176

176:                                              ; preds = %168, %137
  %177 = load i32, ptr %17, align 4
  %178 = lshr i32 %177, 8
  switch i32 %178, label %331 [
    i32 0, label %179
  ]

179:                                              ; preds = %176
  %180 = load i32, ptr %6, align 4
  %181 = zext i32 %180 to i64
  %182 = shl i64 %181, 16
  %183 = load i32, ptr %7, align 4
  %184 = zext i32 %183 to i64
  %185 = or i64 %182, %184
  store i64 %185, ptr %20, align 8
  %186 = load ptr, ptr %5, align 8
  %187 = getelementptr inbounds %struct.TT_FaceRec_, ptr %186, i32 0, i32 75
  %188 = load i32, ptr %187, align 8
  %189 = load i32, ptr %10, align 4
  %190 = and i32 %188, %189
  %191 = icmp ne i32 %190, 0
  br i1 %191, label %192, label %268

192:                                              ; preds = %179
  store i32 0, ptr %21, align 4
  %193 = load i32, ptr %18, align 4
  store i32 %193, ptr %22, align 4
  br label %194

194:                                              ; preds = %266, %192
  %195 = load i32, ptr %21, align 4
  %196 = load i32, ptr %22, align 4
  %197 = icmp ult i32 %195, %196
  br i1 %197, label %198, label %267

198:                                              ; preds = %194
  %199 = load i32, ptr %21, align 4
  %200 = load i32, ptr %22, align 4
  %201 = add i32 %199, %200
  %202 = lshr i32 %201, 1
  store i32 %202, ptr %23, align 4
  %203 = load ptr, ptr %11, align 8
  %204 = load i32, ptr %23, align 4
  %205 = mul i32 6, %204
  %206 = zext i32 %205 to i64
  %207 = getelementptr inbounds i8, ptr %203, i64 %206
  store ptr %207, ptr %24, align 8
  %208 = load ptr, ptr %24, align 8
  %209 = getelementptr inbounds i8, ptr %208, i64 4
  store ptr %209, ptr %24, align 8
  %210 = load ptr, ptr %24, align 8
  %211 = getelementptr inbounds i8, ptr %210, i64 -4
  %212 = getelementptr inbounds i8, ptr %211, i64 0
  %213 = load i8, ptr %212, align 1
  %214 = zext i8 %213 to i32
  %215 = shl i32 %214, 24
  %216 = load ptr, ptr %24, align 8
  %217 = getelementptr inbounds i8, ptr %216, i64 -4
  %218 = getelementptr inbounds i8, ptr %217, i64 1
  %219 = load i8, ptr %218, align 1
  %220 = zext i8 %219 to i32
  %221 = shl i32 %220, 16
  %222 = or i32 %215, %221
  %223 = load ptr, ptr %24, align 8
  %224 = getelementptr inbounds i8, ptr %223, i64 -4
  %225 = getelementptr inbounds i8, ptr %224, i64 2
  %226 = load i8, ptr %225, align 1
  %227 = zext i8 %226 to i32
  %228 = shl i32 %227, 8
  %229 = or i32 %222, %228
  %230 = load ptr, ptr %24, align 8
  %231 = getelementptr inbounds i8, ptr %230, i64 -4
  %232 = getelementptr inbounds i8, ptr %231, i64 3
  %233 = load i8, ptr %232, align 1
  %234 = zext i8 %233 to i32
  %235 = shl i32 %234, 0
  %236 = or i32 %229, %235
  %237 = zext i32 %236 to i64
  store i64 %237, ptr %25, align 8
  %238 = load i64, ptr %25, align 8
  %239 = load i64, ptr %20, align 8
  %240 = icmp eq i64 %238, %239
  br i1 %240, label %241, label %257

241:                                              ; preds = %198
  %242 = load ptr, ptr %24, align 8
  %243 = getelementptr inbounds i8, ptr %242, i64 0
  %244 = load i8, ptr %243, align 1
  %245 = zext i8 %244 to i16
  %246 = zext i16 %245 to i32
  %247 = shl i32 %246, 8
  %248 = load ptr, ptr %24, align 8
  %249 = getelementptr inbounds i8, ptr %248, i64 1
  %250 = load i8, ptr %249, align 1
  %251 = zext i8 %250 to i16
  %252 = zext i16 %251 to i32
  %253 = shl i32 %252, 0
  %254 = or i32 %247, %253
  %255 = trunc i32 %254 to i16
  %256 = sext i16 %255 to i32
  store i32 %256, ptr %19, align 4
  br label %333

257:                                              ; preds = %198
  %258 = load i64, ptr %25, align 8
  %259 = load i64, ptr %20, align 8
  %260 = icmp ult i64 %258, %259
  br i1 %260, label %261, label %264

261:                                              ; preds = %257
  %262 = load i32, ptr %23, align 4
  %263 = add i32 %262, 1
  store i32 %263, ptr %21, align 4
  br label %266

264:                                              ; preds = %257
  %265 = load i32, ptr %23, align 4
  store i32 %265, ptr %22, align 4
  br label %266

266:                                              ; preds = %264, %261
  br label %194, !llvm.loop !47

267:                                              ; preds = %194
  br label %330

268:                                              ; preds = %179
  %269 = load i32, ptr %18, align 4
  store i32 %269, ptr %26, align 4
  br label %270

270:                                              ; preds = %326, %268
  %271 = load i32, ptr %26, align 4
  %272 = icmp ugt i32 %271, 0
  br i1 %272, label %273, label %329

273:                                              ; preds = %270
  %274 = load ptr, ptr %11, align 8
  %275 = getelementptr inbounds i8, ptr %274, i64 4
  store ptr %275, ptr %11, align 8
  %276 = load ptr, ptr %11, align 8
  %277 = getelementptr inbounds i8, ptr %276, i64 -4
  %278 = getelementptr inbounds i8, ptr %277, i64 0
  %279 = load i8, ptr %278, align 1
  %280 = zext i8 %279 to i32
  %281 = shl i32 %280, 24
  %282 = load ptr, ptr %11, align 8
  %283 = getelementptr inbounds i8, ptr %282, i64 -4
  %284 = getelementptr inbounds i8, ptr %283, i64 1
  %285 = load i8, ptr %284, align 1
  %286 = zext i8 %285 to i32
  %287 = shl i32 %286, 16
  %288 = or i32 %281, %287
  %289 = load ptr, ptr %11, align 8
  %290 = getelementptr inbounds i8, ptr %289, i64 -4
  %291 = getelementptr inbounds i8, ptr %290, i64 2
  %292 = load i8, ptr %291, align 1
  %293 = zext i8 %292 to i32
  %294 = shl i32 %293, 8
  %295 = or i32 %288, %294
  %296 = load ptr, ptr %11, align 8
  %297 = getelementptr inbounds i8, ptr %296, i64 -4
  %298 = getelementptr inbounds i8, ptr %297, i64 3
  %299 = load i8, ptr %298, align 1
  %300 = zext i8 %299 to i32
  %301 = shl i32 %300, 0
  %302 = or i32 %295, %301
  %303 = zext i32 %302 to i64
  store i64 %303, ptr %27, align 8
  %304 = load i64, ptr %27, align 8
  %305 = load i64, ptr %20, align 8
  %306 = icmp eq i64 %304, %305
  br i1 %306, label %307, label %323

307:                                              ; preds = %273
  %308 = load ptr, ptr %11, align 8
  %309 = getelementptr inbounds i8, ptr %308, i64 0
  %310 = load i8, ptr %309, align 1
  %311 = zext i8 %310 to i16
  %312 = zext i16 %311 to i32
  %313 = shl i32 %312, 8
  %314 = load ptr, ptr %11, align 8
  %315 = getelementptr inbounds i8, ptr %314, i64 1
  %316 = load i8, ptr %315, align 1
  %317 = zext i8 %316 to i16
  %318 = zext i16 %317 to i32
  %319 = shl i32 %318, 0
  %320 = or i32 %313, %319
  %321 = trunc i32 %320 to i16
  %322 = sext i16 %321 to i32
  store i32 %322, ptr %19, align 4
  br label %333

323:                                              ; preds = %273
  %324 = load ptr, ptr %11, align 8
  %325 = getelementptr inbounds i8, ptr %324, i64 2
  store ptr %325, ptr %11, align 8
  br label %326

326:                                              ; preds = %323
  %327 = load i32, ptr %26, align 4
  %328 = add i32 %327, -1
  store i32 %328, ptr %26, align 4
  br label %270, !llvm.loop !48

329:                                              ; preds = %270
  br label %330

330:                                              ; preds = %329, %267
  br label %332

331:                                              ; preds = %176
  br label %332

332:                                              ; preds = %331, %330
  br label %344

333:                                              ; preds = %307, %241
  %334 = load i32, ptr %17, align 4
  %335 = and i32 %334, 8
  %336 = icmp ne i32 %335, 0
  br i1 %336, label %337, label %339

337:                                              ; preds = %333
  %338 = load i32, ptr %19, align 4
  store i32 %338, ptr %8, align 4
  br label %343

339:                                              ; preds = %333
  %340 = load i32, ptr %19, align 4
  %341 = load i32, ptr %8, align 4
  %342 = add nsw i32 %341, %340
  store i32 %342, ptr %8, align 4
  br label %343

343:                                              ; preds = %339, %337
  br label %344

344:                                              ; preds = %343, %332, %134
  %345 = load ptr, ptr %14, align 8
  store ptr %345, ptr %11, align 8
  br label %346

346:                                              ; preds = %344
  %347 = load i32, ptr %9, align 4
  %348 = add i32 %347, -1
  store i32 %348, ptr %9, align 4
  %349 = load i32, ptr %10, align 4
  %350 = shl i32 %349, 1
  store i32 %350, ptr %10, align 4
  br label %48, !llvm.loop !49

351:                                              ; preds = %56
  %352 = load i32, ptr %8, align 4
  store i32 %352, ptr %4, align 4
  br label %353

353:                                              ; preds = %351, %32
  %354 = load i32, ptr %4, align 4
  ret i32 %354
}