; Function Attrs: nofree norecurse nosync nounwind memory(read, inaccessiblemem: none) uwtable
define internal i32 @tt_face_get_kerning(ptr nocapture noundef readonly %0, i32 noundef %1, i32 noundef %2) #7 {
  %4 = getelementptr inbounds i8, ptr %0, i64 1360
  %5 = load ptr, ptr %4, align 8
  %.not = icmp eq ptr %5, null
  br i1 %.not, label %.loopexit108, label %6

6:                                                ; preds = %3
  %7 = getelementptr inbounds i8, ptr %0, i64 1368
  %8 = load i64, ptr %7, align 8
  %9 = getelementptr inbounds i8, ptr %5, i64 %8
  %10 = getelementptr inbounds i8, ptr %0, i64 1376
  %11 = load i32, ptr %10, align 8
  %12 = icmp ne i32 %11, 0
  %13 = icmp sgt i64 %8, 9
  %14 = select i1 %12, i1 %13, i1 false
  br i1 %14, label %.lr.ph120, label %.loopexit108

.lr.ph120:                                        ; preds = %6
  %15 = getelementptr inbounds i8, ptr %5, i64 10
  %16 = getelementptr inbounds i8, ptr %5, i64 4
  %17 = getelementptr inbounds i8, ptr %0, i64 1380
  %18 = load i32, ptr %17, align 4
  %19 = zext i32 %1 to i64
  %20 = shl nuw nsw i64 %19, 16
  %21 = zext i32 %2 to i64
  %22 = or i64 %20, %21
  %23 = getelementptr inbounds i8, ptr %0, i64 1384
  br label %24

24:                                               ; preds = %.lr.ph120, %.loopexit
  %25 = phi ptr [ %15, %.lr.ph120 ], [ %123, %.loopexit ]
  %.084119 = phi i32 [ 0, %.lr.ph120 ], [ %.1, %.loopexit ]
  %.085118 = phi i32 [ %11, %.lr.ph120 ], [ %120, %.loopexit ]
  %.090117 = phi i32 [ 1, %.lr.ph120 ], [ %121, %.loopexit ]
  %.093116 = phi ptr [ %16, %.lr.ph120 ], [ %spec.select, %.loopexit ]
  %26 = getelementptr inbounds i8, ptr %.093116, i64 2
  %27 = load i8, ptr %26, align 1
  %28 = zext i8 %27 to i64
  %29 = shl nuw nsw i64 %28, 8
  %30 = getelementptr inbounds i8, ptr %.093116, i64 3
  %31 = load i8, ptr %30, align 1
  %32 = zext i8 %31 to i64
  %33 = or disjoint i64 %29, %32
  %34 = getelementptr inbounds i8, ptr %.093116, i64 5
  %35 = load i8, ptr %34, align 1
  %36 = getelementptr inbounds i8, ptr %.093116, i64 %33
  %37 = icmp ugt ptr %36, %9
  %spec.select = select i1 %37, ptr %9, ptr %36
  %38 = and i32 %18, %.090117
  %39 = icmp eq i32 %38, 0
  br i1 %39, label %.loopexit, label %40

40:                                               ; preds = %24
  %41 = getelementptr inbounds i8, ptr %.093116, i64 4
  %42 = load i8, ptr %41, align 1
  %43 = getelementptr inbounds i8, ptr %.093116, i64 14
  %cond = icmp eq i8 %42, 0
  br i1 %cond, label %44, label %.loopexit

44:                                               ; preds = %40
  %45 = ptrtoint ptr %spec.select to i64
  %46 = ptrtoint ptr %43 to i64
  %47 = sub i64 %45, %46
  %48 = load i8, ptr %25, align 1
  %49 = zext i8 %48 to i32
  %50 = shl nuw nsw i32 %49, 8
  %51 = getelementptr inbounds i8, ptr %.093116, i64 7
  %52 = load i8, ptr %51, align 1
  %53 = zext i8 %52 to i32
  %54 = or disjoint i32 %50, %53
  %55 = mul nuw nsw i32 %54, 6
  %56 = zext nneg i32 %55 to i64
  %57 = icmp slt i64 %47, %56
  %58 = sdiv i64 %47, 6
  %59 = trunc i64 %58 to i32
  %.092 = select i1 %57, i32 %59, i32 %54
  %60 = load i32, ptr %23, align 8
  %61 = and i32 %60, %.090117
  %.not102 = icmp eq i32 %61, 0
  %.not103112 = icmp eq i32 %.092, 0
  br i1 %.not102, label %.preheader, label %.preheader106

.preheader106:                                    ; preds = %44
  br i1 %.not103112, label %.loopexit, label %.lr.ph

.preheader:                                       ; preds = %44
  br i1 %.not103112, label %.loopexit, label %.lr.ph115

.lr.ph:                                           ; preds = %.preheader106, %85
  %.086111 = phi i32 [ %.187, %85 ], [ %.092, %.preheader106 ]
  %.088110 = phi i32 [ %.189, %85 ], [ 0, %.preheader106 ]
  %62 = add i32 %.086111, %.088110
  %63 = lshr i32 %62, 1
  %64 = mul i32 %63, 6
  %65 = zext i32 %64 to i64
  %66 = getelementptr inbounds i8, ptr %43, i64 %65
  %67 = load i8, ptr %66, align 1
  %68 = zext i8 %67 to i64
  %69 = shl nuw nsw i64 %68, 24
  %70 = getelementptr inbounds i8, ptr %66, i64 1
  %71 = load i8, ptr %70, align 1
  %72 = zext i8 %71 to i64
  %73 = shl nuw nsw i64 %72, 16
  %74 = or disjoint i64 %73, %69
  %75 = getelementptr inbounds i8, ptr %66, i64 2
  %76 = load i8, ptr %75, align 1
  %77 = zext i8 %76 to i64
  %78 = shl nuw nsw i64 %77, 8
  %79 = or disjoint i64 %74, %78
  %80 = getelementptr inbounds i8, ptr %66, i64 3
  %81 = load i8, ptr %80, align 1
  %82 = zext i8 %81 to i64
  %83 = or disjoint i64 %79, %82
  %84 = icmp eq i64 %83, %22
  br i1 %84, label %.loopexit134, label %85

85:                                               ; preds = %.lr.ph
  %86 = icmp ult i64 %83, %22
  %87 = add nuw i32 %63, 1
  %.189 = select i1 %86, i32 %87, i32 %.088110
  %.187 = select i1 %86, i32 %.086111, i32 %63
  %88 = icmp ult i32 %.189, %.187
  br i1 %88, label %.lr.ph, label %.loopexit, !llvm.loop !67

.lr.ph115:                                        ; preds = %.preheader, %107
  %.083114 = phi i32 [ %109, %107 ], [ %.092, %.preheader ]
  %.194113 = phi ptr [ %108, %107 ], [ %43, %.preheader ]
  %89 = load i8, ptr %.194113, align 1
  %90 = zext i8 %89 to i64
  %91 = shl nuw nsw i64 %90, 24
  %92 = getelementptr inbounds i8, ptr %.194113, i64 1
  %93 = load i8, ptr %92, align 1
  %94 = zext i8 %93 to i64
  %95 = shl nuw nsw i64 %94, 16
  %96 = or disjoint i64 %95, %91
  %97 = getelementptr inbounds i8, ptr %.194113, i64 2
  %98 = load i8, ptr %97, align 1
  %99 = zext i8 %98 to i64
  %100 = shl nuw nsw i64 %99, 8
  %101 = or disjoint i64 %96, %100
  %102 = getelementptr inbounds i8, ptr %.194113, i64 3
  %103 = load i8, ptr %102, align 1
  %104 = zext i8 %103 to i64
  %105 = or disjoint i64 %101, %104
  %106 = icmp eq i64 %105, %22
  br i1 %106, label %.loopexit134, label %107

107:                                              ; preds = %.lr.ph115
  %108 = getelementptr inbounds i8, ptr %.194113, i64 6
  %109 = add i32 %.083114, -1
  %.not103 = icmp eq i32 %109, 0
  br i1 %.not103, label %.loopexit, label %.lr.ph115, !llvm.loop !68

.loopexit134:                                     ; preds = %.lr.ph, %.lr.ph115
  %.194113.lcssa.sink133 = phi ptr [ %.194113, %.lr.ph115 ], [ %66, %.lr.ph ]
  %110 = getelementptr inbounds i8, ptr %.194113.lcssa.sink133, i64 4
  %111 = load i8, ptr %110, align 1
  %112 = zext i8 %111 to i16
  %113 = shl nuw i16 %112, 8
  %114 = getelementptr inbounds i8, ptr %.194113.lcssa.sink133, i64 5
  %115 = load i8, ptr %114, align 1
  %116 = zext i8 %115 to i16
  %117 = or disjoint i16 %113, %116
  %.091 = sext i16 %117 to i32
  %118 = and i8 %35, 8
  %.not104 = icmp eq i8 %118, 0
  %119 = select i1 %.not104, i32 %.084119, i32 0
  %spec.select105 = add nsw i32 %119, %.091
  br label %.loopexit

.loopexit:                                        ; preds = %85, %107, %.preheader106, %.preheader, %.loopexit134, %40, %24
  %.1 = phi i32 [ %.084119, %24 ], [ %.084119, %40 ], [ %spec.select105, %.loopexit134 ], [ %.084119, %.preheader ], [ %.084119, %.preheader106 ], [ %.084119, %107 ], [ %.084119, %85 ]
  %120 = add i32 %.085118, -1
  %121 = shl i32 %.090117, 1
  %122 = icmp ne i32 %120, 0
  %123 = getelementptr inbounds i8, ptr %spec.select, i64 6
  %124 = icmp ule ptr %123, %9
  %125 = select i1 %122, i1 %124, i1 false
  br i1 %125, label %24, label %.loopexit108, !llvm.loop !69

.loopexit108:                                     ; preds = %.loopexit, %6, %3
  %.0 = phi i32 [ 0, %3 ], [ 0, %6 ], [ %.1, %.loopexit ]
  ret i32 %.0
}